; Function Attrs: mustprogress uwtable
define noundef nonnull align 8 dereferenceable(8) ptr @_ZN32pxrInternal_v0_24__pxrReserved__lsERSoRKNS_9GfRange2dE(ptr noundef nonnull align 8 dereferenceable(8) %0, ptr nocapture noundef nonnull readonly align 8 dereferenceable(32) %1) local_unnamed_addr #0 {
  %3 = alloca %"class.pxrInternal_v0_24__pxrReserved__::GfVec2d", align 8
  %4 = alloca %"class.pxrInternal_v0_24__pxrReserved__::GfVec2d", align 8
  %5 = tail call noundef nonnull align 8 dereferenceable(8) ptr @_ZStlsISt11char_traitsIcEERSt13basic_ostreamIcT_ES5_c(ptr noundef nonnull align 8 dereferenceable(8) %0, i8 noundef signext 91)
  %.sroa.01.0.copyload = load double, ptr %1, align 8
  %.sroa.22.0..sroa_idx = getelementptr inbounds i8, ptr %1, i64 8
  %.sroa.22.0.copyload = load double, ptr %.sroa.22.0..sroa_idx, align 8
  store double %.sroa.01.0.copyload, ptr %3, align 8
  %6 = getelementptr inbounds nuw i8, ptr %3, i64 8
  store double %.sroa.22.0.copyload, ptr %6, align 8
  %7 = call noundef nonnull align 8 dereferenceable(8) ptr @_ZN32pxrInternal_v0_24__pxrReserved__lsERSoRKNS_7GfVec2dE(ptr noundef nonnull align 8 dereferenceable(8) %5, ptr noundef nonnull align 8 dereferenceable(16) %3)
  %8 = call noundef nonnull align 8 dereferenceable(8) ptr @_ZStlsISt11char_traitsIcEERSt13basic_ostreamIcT_ES5_PKc(ptr noundef nonnull align 8 dereferenceable(8) %7, ptr noundef nonnull @.str.2)
  %9 = getelementptr inbounds nuw i8, ptr %1, i64 16
  %.sroa.0.0.copyload = load double, ptr %9, align 8
  %.sroa.2.0..sroa_idx = getelementptr inbounds i8, ptr %1, i64 24
  %.sroa.2.0.copyload = load double, ptr %.sroa.2.0..sroa_idx, align 8
  store double %.sroa.0.0.copyload, ptr %4, align 8
  %10 = getelementptr inbounds nuw i8, ptr %4, i64 8
  store double %.sroa.2.0.copyload, ptr %10, align 8
  %11 = call noundef nonnull align 8 dereferenceable(8) ptr @_ZN32pxrInternal_v0_24__pxrReserved__lsERSoRKNS_7GfVec2dE(ptr noundef nonnull align 8 dereferenceable(8) %8, ptr noundef nonnull align 8 dereferenceable(16) %4)
  %12 = call noundef nonnull align 8 dereferenceable(8) ptr @_ZStlsISt11char_traitsIcEERSt13basic_ostreamIcT_ES5_c(ptr noundef nonnull align 8 dereferenceable(8) %11, i8 noundef signext 93)
  ret ptr %12
}